; Function Attrs: mustprogress nounwind uwtable
define dso_local noundef ptr @_ZN4llvm12ConstantExpr17getTruncOrBitCastEPNS_8ConstantEPNS_4TypeE(ptr noundef %0, ptr noundef nonnull %1) local_unnamed_addr #0 align 2 {
  %3 = getelementptr inbounds nuw i8, ptr %0, i64 8
  %4 = load ptr, ptr %3, align 8
  %5 = tail call noundef i32 @_ZNK4llvm4Type19getScalarSizeInBitsEv(ptr noundef nonnull align 8 dereferenceable(24) %4) #30
  %6 = tail call noundef i32 @_ZNK4llvm4Type19getScalarSizeInBitsEv(ptr noundef nonnull align 8 dereferenceable(24) %1) #30
  %7 = icmp eq i32 %5, %6
  br i1 %7, label %8, label %_ZN4llvm12ConstantExpr10getBitCastEPNS_8ConstantEPNS_4TypeEb.exit.sink.split

8:                                                ; preds = %2
  %9 = icmp eq ptr %4, %1
  br i1 %9, label %_ZN4llvm12ConstantExpr10getBitCastEPNS_8ConstantEPNS_4TypeEb.exit, label %_ZN4llvm12ConstantExpr10getBitCastEPNS_8ConstantEPNS_4TypeEb.exit.sink.split

_ZN4llvm12ConstantExpr10getBitCastEPNS_8ConstantEPNS_4TypeEb.exit.sink.split: ; preds = %2, %8
  %.sink = phi i32 [ 49, %8 ], [ 38, %2 ]
  %10 = tail call fastcc noundef ptr @_ZL13getFoldedCastN4llvm11Instruction7CastOpsEPNS_8ConstantEPNS_4TypeEb(i32 noundef %.sink, ptr noundef nonnull %0, ptr noundef nonnull %1, i1 noundef zeroext false)
  br label %_ZN4llvm12ConstantExpr10getBitCastEPNS_8ConstantEPNS_4TypeEb.exit

_ZN4llvm12ConstantExpr10getBitCastEPNS_8ConstantEPNS_4TypeEb.exit: ; preds = %_ZN4llvm12ConstantExpr10getBitCastEPNS_8ConstantEPNS_4TypeEb.exit.sink.split, %8
  %.0 = phi ptr [ %0, %8 ], [ %10, %_ZN4llvm12ConstantExpr10getBitCastEPNS_8ConstantEPNS_4TypeEb.exit.sink.split ]
  ret ptr %.0
}